target datalayout = "e-m:e-p270:32:32-p271:32:32-p272:64:64-i64:64-i128:128-f80:128-n8:16:32:64-S128"
target triple = "x86_64-pc-linux-gnu"

%"struct.c4::yml::Callbacks" = type { ptr, ptr, ptr, ptr }
%"struct.c4::basic_substring.0" = type { ptr, i64 }
%"struct.c4::basic_substring" = type { ptr, i64 }
%"struct.c4::yml::Location" = type { %"struct.c4::yml::LineCol", %"struct.c4::basic_substring.0" }
%"struct.c4::yml::LineCol" = type { i64, i64, i64 }
%"class.c4::yml::Tree" = type { ptr, i64, i64, i64, i64, %"struct.c4::basic_substring", i64, %"struct.c4::yml::Callbacks", [4 x %"struct.c4::yml::TagDirective"] }
%"struct.c4::yml::TagDirective" = type { %"struct.c4::basic_substring.0", %"struct.c4::basic_substring.0", i64 }

@.str = private unnamed_addr constant [128 x i8] c"generated/home/dtcxzyw/WorkSpace/Projects/compilers/llvm-opt-benchmark/bench/jsonnet/jsonnet/third_party/rapidyaml/ryml_all.hpp\00", align 1
@__const._ZN2c43yml4Tree5_freeEv.msg = private unnamed_addr constant [26 x i8] c"check failed: (m_cap > 0)\00", align 16
@__const._ZN2c43yml4Tree5_freeEv.msg.95 = private unnamed_addr constant [32 x i8] c"check failed: (m_arena.len > 0)\00", align 16

; Function Attrs: mustprogress nounwind uwtable
define linkonce_odr void @_ZN2c415basic_substringIKcEC2EPS1_m(ptr noundef nonnull align 8 dereferenceable(16) %0, ptr noundef %1, i64 noundef %2) unnamed_addr #0 comdat align 2 {
  %4 = alloca ptr, align 8
  %5 = alloca ptr, align 8
  %6 = alloca i64, align 8
  store ptr %0, ptr %4, align 8, !tbaa !45
  store ptr %1, ptr %5, align 8, !tbaa !20
  store i64 %2, ptr %6, align 8, !tbaa !15
  %7 = load ptr, ptr %4, align 8
  %8 = getelementptr inbounds nuw %"struct.c4::basic_substring.0", ptr %7, i32 0, i32 0
  %9 = load ptr, ptr %5, align 8, !tbaa !20
  store ptr %9, ptr %8, align 8, !tbaa !37
  %10 = getelementptr inbounds nuw %"struct.c4::basic_substring.0", ptr %7, i32 0, i32 1
  %11 = load i64, ptr %6, align 8, !tbaa !15
  store i64 %11, ptr %10, align 8, !tbaa !39
  ret void
}

; Function Attrs: mustprogress nounwind uwtable
define linkonce_odr void @_ZN2c415basic_substringIKcEC2Ev(ptr noundef nonnull align 8 dereferenceable(16) %0) unnamed_addr #0 comdat align 2 {
  %2 = alloca ptr, align 8
  store ptr %0, ptr %2, align 8, !tbaa !45
  %3 = load ptr, ptr %2, align 8
  %4 = getelementptr inbounds nuw %"struct.c4::basic_substring.0", ptr %3, i32 0, i32 0
  store ptr null, ptr %4, align 8, !tbaa !37
  %5 = getelementptr inbounds nuw %"struct.c4::basic_substring.0", ptr %3, i32 0, i32 1
  store i64 0, ptr %5, align 8, !tbaa !39
  ret void
}

; Function Attrs: mustprogress nounwind uwtable
define linkonce_odr noundef nonnull align 8 dereferenceable(16) ptr @_ZN2c415basic_substringIcEaSEDn(ptr noundef nonnull align 8 dereferenceable(16) %0, ptr %1) #0 comdat align 2 {
  %3 = alloca ptr, align 8
  %4 = alloca ptr, align 8
  store ptr %0, ptr %3, align 8, !tbaa !30
  store ptr %1, ptr %4, align 8, !tbaa !140
  %5 = load ptr, ptr %3, align 8
  %6 = getelementptr inbounds nuw %"struct.c4::basic_substring", ptr %5, i32 0, i32 0
  store ptr null, ptr %6, align 8, !tbaa !6
  %7 = getelementptr inbounds nuw %"struct.c4::basic_substring", ptr %5, i32 0, i32 1
  store i64 0, ptr %7, align 8, !tbaa !14
  ret ptr %5
}

; Function Attrs: inlinehint mustprogress uwtable
define linkonce_odr { ptr, i64 } @_ZN2c410to_csubstrEPKc(ptr noundef %0) #19 comdat {
  %2 = alloca %"struct.c4::basic_substring.0", align 8
  %3 = alloca ptr, align 8
  store ptr %0, ptr %3, align 8, !tbaa !20
  %4 = load ptr, ptr %3, align 8, !tbaa !20
  %5 = load ptr, ptr %3, align 8, !tbaa !20
  %6 = icmp ne ptr %5, null
  br i1 %6, label %7, label %10

7:                                                ; preds = %1
  %8 = load ptr, ptr %3, align 8, !tbaa !20
  %9 = call i64 @strlen(ptr noundef %8) #26
  br label %11

10:                                               ; preds = %1
  br label %11

11:                                               ; preds = %10, %7
  %12 = phi i64 [ %9, %7 ], [ 0, %10 ]
  call void @_ZN2c415basic_substringIKcEC2EPS1_m(ptr noundef nonnull align 8 dereferenceable(16) %2, ptr noundef %4, i64 noundef %12)
  %13 = load { ptr, i64 }, ptr %2, align 8
  ret { ptr, i64 } %13
}

; Function Attrs: mustprogress nounwind uwtable
define linkonce_odr void @_ZN2c43yml7LineColC2Emmm(ptr noundef nonnull align 8 dereferenceable(24) %0, i64 noundef %1, i64 noundef %2, i64 noundef %3) unnamed_addr #0 comdat align 2 {
  %5 = alloca ptr, align 8
  %6 = alloca i64, align 8
  %7 = alloca i64, align 8
  %8 = alloca i64, align 8
  store ptr %0, ptr %5, align 8, !tbaa !355
  store i64 %1, ptr %6, align 8, !tbaa !15
  store i64 %2, ptr %7, align 8, !tbaa !15
  store i64 %3, ptr %8, align 8, !tbaa !15
  %9 = load ptr, ptr %5, align 8
  %10 = getelementptr inbounds nuw %"struct.c4::yml::LineCol", ptr %9, i32 0, i32 0
  %11 = load i64, ptr %6, align 8, !tbaa !15
  store i64 %11, ptr %10, align 8, !tbaa !80
  %12 = getelementptr inbounds nuw %"struct.c4::yml::LineCol", ptr %9, i32 0, i32 1
  %13 = load i64, ptr %7, align 8, !tbaa !15
  store i64 %13, ptr %12, align 8, !tbaa !78
  %14 = getelementptr inbounds nuw %"struct.c4::yml::LineCol", ptr %9, i32 0, i32 2
  %15 = load i64, ptr %8, align 8, !tbaa !15
  store i64 %15, ptr %14, align 8, !tbaa !79
  ret void
}

; Function Attrs: mustprogress uwtable
define void @_ZN2c43yml4Tree6_clearEv(ptr noundef nonnull align 8 dereferenceable(256) %0) #1 align 2 {
  %2 = alloca ptr, align 8
  %3 = alloca i64, align 8
  %4 = alloca %"struct.c4::yml::TagDirective", align 8
  store ptr %0, ptr %2, align 8, !tbaa !96
  %5 = load ptr, ptr %2, align 8
  %6 = getelementptr inbounds nuw %"class.c4::yml::Tree", ptr %5, i32 0, i32 0
  store ptr null, ptr %6, align 8, !tbaa !118
  %7 = getelementptr inbounds nuw %"class.c4::yml::Tree", ptr %5, i32 0, i32 1
  store i64 0, ptr %7, align 8, !tbaa !98
  %8 = getelementptr inbounds nuw %"class.c4::yml::Tree", ptr %5, i32 0, i32 2
  store i64 0, ptr %8, align 8, !tbaa !111
  %9 = getelementptr inbounds nuw %"class.c4::yml::Tree", ptr %5, i32 0, i32 3
  store i64 0, ptr %9, align 8, !tbaa !119
  %10 = getelementptr inbounds nuw %"class.c4::yml::Tree", ptr %5, i32 0, i32 4
  store i64 0, ptr %10, align 8, !tbaa !120
  %11 = getelementptr inbounds nuw %"class.c4::yml::Tree", ptr %5, i32 0, i32 5
  %12 = call noundef nonnull align 8 dereferenceable(16) ptr @_ZN2c415basic_substringIcEaSEDn(ptr noundef nonnull align 8 dereferenceable(16) %11, ptr null)
  %13 = getelementptr inbounds nuw %"class.c4::yml::Tree", ptr %5, i32 0, i32 6
  store i64 0, ptr %13, align 8, !tbaa !121
  call void @llvm.lifetime.start.p0(i64 8, ptr %3) #25
  store i64 0, ptr %3, align 8, !tbaa !15
  br label %14

14:                                               ; preds = %25, %1
  %15 = load i64, ptr %3, align 8, !tbaa !15
  %16 = icmp ult i64 %15, 4
  br i1 %16, label %18, label %17

17:                                               ; preds = %14
  call void @llvm.lifetime.end.p0(i64 8, ptr %3) #25
  br label %28

18:                                               ; preds = %14
  call void @llvm.lifetime.start.p0(i64 40, ptr %4) #25
  %19 = getelementptr inbounds nuw %"struct.c4::yml::TagDirective", ptr %4, i32 0, i32 0
  call void @_ZN2c415basic_substringIKcEC2Ev(ptr noundef nonnull align 8 dereferenceable(16) %19)
  %20 = getelementptr inbounds nuw %"struct.c4::yml::TagDirective", ptr %4, i32 0, i32 1
  call void @_ZN2c415basic_substringIKcEC2Ev(ptr noundef nonnull align 8 dereferenceable(16) %20)
  %21 = getelementptr inbounds nuw %"struct.c4::yml::TagDirective", ptr %4, i32 0, i32 2
  store i64 0, ptr %21, align 8, !tbaa !137
  %22 = getelementptr inbounds nuw %"class.c4::yml::Tree", ptr %5, i32 0, i32 8
  %23 = load i64, ptr %3, align 8, !tbaa !15
  %24 = getelementptr inbounds nuw [4 x %"struct.c4::yml::TagDirective"], ptr %22, i64 0, i64 %23
  call void @llvm.memcpy.p0.p0.i64(ptr align 8 %24, ptr align 8 %4, i64 40, i1 false), !tbaa.struct !134
  call void @llvm.lifetime.end.p0(i64 40, ptr %4) #25
  br label %25

25:                                               ; preds = %18
  %26 = load i64, ptr %3, align 8, !tbaa !15
  %27 = add i64 %26, 1
  store i64 %27, ptr %3, align 8, !tbaa !15
  br label %14, !llvm.loop !139

28:                                               ; preds = %17
  ret void
}

; Function Attrs: mustprogress uwtable
define linkonce_odr void @_ZN2c43yml8LocationC2EPKcmmm(ptr noundef nonnull align 8 dereferenceable(40) %0, ptr noundef %1, i64 noundef %2, i64 noundef %3, i64 noundef %4) unnamed_addr #1 comdat align 2 {
  %6 = alloca ptr, align 8
  %7 = alloca ptr, align 8
  %8 = alloca i64, align 8
  %9 = alloca i64, align 8
  %10 = alloca i64, align 8
  store ptr %0, ptr %6, align 8, !tbaa !81
  store ptr %1, ptr %7, align 8, !tbaa !20
  store i64 %2, ptr %8, align 8, !tbaa !15
  store i64 %3, ptr %9, align 8, !tbaa !15
  store i64 %4, ptr %10, align 8, !tbaa !15
  %11 = load ptr, ptr %6, align 8
  %12 = load i64, ptr %8, align 8, !tbaa !15
  %13 = load i64, ptr %9, align 8, !tbaa !15
  %14 = load i64, ptr %10, align 8, !tbaa !15
  call void @_ZN2c43yml7LineColC2Emmm(ptr noundef nonnull align 8 dereferenceable(24) %11, i64 noundef %12, i64 noundef %13, i64 noundef %14)
  %15 = getelementptr inbounds nuw %"struct.c4::yml::Location", ptr %11, i32 0, i32 1
  %16 = load ptr, ptr %7, align 8, !tbaa !20
  %17 = call { ptr, i64 } @_ZN2c410to_csubstrEPKc(ptr noundef %16)
  %18 = getelementptr inbounds nuw { ptr, i64 }, ptr %15, i32 0, i32 0
  %19 = extractvalue { ptr, i64 } %17, 0
  store ptr %19, ptr %18, align 8
  %20 = getelementptr inbounds nuw { ptr, i64 }, ptr %15, i32 0, i32 1
  %21 = extractvalue { ptr, i64 } %17, 1
  store i64 %21, ptr %20, align 8
  ret void
}

; Function Attrs: mustprogress uwtable
define void @_ZN2c43yml4Tree5_freeEv(ptr noundef nonnull align 8 dereferenceable(256) %0) #1 align 2 {
  %2 = alloca ptr, align 8
  %3 = alloca [26 x i8], align 16
  %4 = alloca %"struct.c4::yml::Location", align 8
  %5 = alloca [32 x i8], align 16
  %6 = alloca %"struct.c4::yml::Location", align 8
  store ptr %0, ptr %2, align 8, !tbaa !96
  %7 = load ptr, ptr %2, align 8
  %8 = getelementptr inbounds nuw %"class.c4::yml::Tree", ptr %7, i32 0, i32 0
  %9 = load ptr, ptr %8, align 8, !tbaa !118
  %10 = icmp ne ptr %9, null
  br i1 %10, label %11, label %40

11:                                               ; preds = %1
  br label %12

12:                                               ; preds = %11
  %13 = getelementptr inbounds nuw %"class.c4::yml::Tree", ptr %7, i32 0, i32 1
  %14 = load i64, ptr %13, align 8, !tbaa !98
  %15 = icmp ugt i64 %14, 0
  br i1 %15, label %24, label %16

16:                                               ; preds = %12
  call void @llvm.lifetime.start.p0(i64 26, ptr %3) #25
  call void @llvm.memcpy.p0.p0.i64(ptr align 16 %3, ptr align 16 @__const._ZN2c43yml4Tree5_freeEv.msg, i64 26, i1 false)
  %17 = getelementptr inbounds nuw %"class.c4::yml::Tree", ptr %7, i32 0, i32 7
  %18 = getelementptr inbounds nuw %"struct.c4::yml::Callbacks", ptr %17, i32 0, i32 3
  %19 = load ptr, ptr %18, align 8, !tbaa !112
  %20 = getelementptr inbounds [26 x i8], ptr %3, i64 0, i64 0
  call void @_ZN2c43yml8LocationC2EPKcmmm(ptr noundef nonnull align 8 dereferenceable(40) %4, ptr noundef @.str, i64 noundef 0, i64 noundef 25280, i64 noundef 0)
  %21 = getelementptr inbounds nuw %"class.c4::yml::Tree", ptr %7, i32 0, i32 7
  %22 = getelementptr inbounds nuw %"struct.c4::yml::Callbacks", ptr %21, i32 0, i32 0
  %23 = load ptr, ptr %22, align 8, !tbaa !113
  call void %19(ptr noundef %20, i64 noundef 26, ptr noundef byval(%"struct.c4::yml::Location") align 8 %4, ptr noundef %23)
  call void @llvm.lifetime.end.p0(i64 26, ptr %3) #25
  br label %24

24:                                               ; preds = %16, %12
  br label %25

25:                                               ; preds = %24
  br label %26

26:                                               ; preds = %25
  %27 = getelementptr inbounds nuw %"class.c4::yml::Tree", ptr %7, i32 0, i32 7
  %28 = getelementptr inbounds nuw %"struct.c4::yml::Callbacks", ptr %27, i32 0, i32 2
  %29 = load ptr, ptr %28, align 8, !tbaa !126
  %30 = getelementptr inbounds nuw %"class.c4::yml::Tree", ptr %7, i32 0, i32 0
  %31 = load ptr, ptr %30, align 8, !tbaa !118
  %32 = getelementptr inbounds nuw %"class.c4::yml::Tree", ptr %7, i32 0, i32 1
  %33 = load i64, ptr %32, align 8, !tbaa !98
  %34 = mul i64 %33, 144
  %35 = getelementptr inbounds nuw %"class.c4::yml::Tree", ptr %7, i32 0, i32 7
  %36 = getelementptr inbounds nuw %"struct.c4::yml::Callbacks", ptr %35, i32 0, i32 0
  %37 = load ptr, ptr %36, align 8, !tbaa !113
  call void %29(ptr noundef %31, i64 noundef %34, ptr noundef %37)
  %38 = getelementptr inbounds nuw %"class.c4::yml::Tree", ptr %7, i32 0, i32 0
  store ptr null, ptr %38, align 8, !tbaa !118
  br label %39

39:                                               ; preds = %26
  br label %40

40:                                               ; preds = %39, %1
  %41 = getelementptr inbounds nuw %"class.c4::yml::Tree", ptr %7, i32 0, i32 5
  %42 = getelementptr inbounds nuw %"struct.c4::basic_substring", ptr %41, i32 0, i32 0
  %43 = load ptr, ptr %42, align 8, !tbaa !133
  %44 = icmp ne ptr %43, null
  br i1 %44, label %45, label %78

45:                                               ; preds = %40
  br label %46

46:                                               ; preds = %45
  %47 = getelementptr inbounds nuw %"class.c4::yml::Tree", ptr %7, i32 0, i32 5
  %48 = getelementptr inbounds nuw %"struct.c4::basic_substring", ptr %47, i32 0, i32 1
  %49 = load i64, ptr %48, align 8, !tbaa !132
  %50 = icmp ugt i64 %49, 0
  br i1 %50, label %59, label %51

51:                                               ; preds = %46
  call void @llvm.lifetime.start.p0(i64 32, ptr %5) #25
  call void @llvm.memcpy.p0.p0.i64(ptr align 16 %5, ptr align 16 @__const._ZN2c43yml4Tree5_freeEv.msg.95, i64 32, i1 false)
  %52 = getelementptr inbounds nuw %"class.c4::yml::Tree", ptr %7, i32 0, i32 7
  %53 = getelementptr inbounds nuw %"struct.c4::yml::Callbacks", ptr %52, i32 0, i32 3
  %54 = load ptr, ptr %53, align 8, !tbaa !112
  %55 = getelementptr inbounds [32 x i8], ptr %5, i64 0, i64 0
  call void @_ZN2c43yml8LocationC2EPKcmmm(ptr noundef nonnull align 8 dereferenceable(40) %6, ptr noundef @.str, i64 noundef 0, i64 noundef 25285, i64 noundef 0)
  %56 = getelementptr inbounds nuw %"class.c4::yml::Tree", ptr %7, i32 0, i32 7
  %57 = getelementptr inbounds nuw %"struct.c4::yml::Callbacks", ptr %56, i32 0, i32 0
  %58 = load ptr, ptr %57, align 8, !tbaa !113
  call void %54(ptr noundef %55, i64 noundef 32, ptr noundef byval(%"struct.c4::yml::Location") align 8 %6, ptr noundef %58)
  call void @llvm.lifetime.end.p0(i64 32, ptr %5) #25
  br label %59

59:                                               ; preds = %51, %46
  br label %60

60:                                               ; preds = %59
  br label %61

61:                                               ; preds = %60
  %62 = getelementptr inbounds nuw %"class.c4::yml::Tree", ptr %7, i32 0, i32 7
  %63 = getelementptr inbounds nuw %"struct.c4::yml::Callbacks", ptr %62, i32 0, i32 2
  %64 = load ptr, ptr %63, align 8, !tbaa !126
  %65 = getelementptr inbounds nuw %"class.c4::yml::Tree", ptr %7, i32 0, i32 5
  %66 = getelementptr inbounds nuw %"struct.c4::basic_substring", ptr %65, i32 0, i32 0
  %67 = load ptr, ptr %66, align 8, !tbaa !133
  %68 = getelementptr inbounds nuw %"class.c4::yml::Tree", ptr %7, i32 0, i32 5
  %69 = getelementptr inbounds nuw %"struct.c4::basic_substring", ptr %68, i32 0, i32 1
  %70 = load i64, ptr %69, align 8, !tbaa !132
  %71 = mul i64 %70, 1
  %72 = getelementptr inbounds nuw %"class.c4::yml::Tree", ptr %7, i32 0, i32 7
  %73 = getelementptr inbounds nuw %"struct.c4::yml::Callbacks", ptr %72, i32 0, i32 0
  %74 = load ptr, ptr %73, align 8, !tbaa !113
  call void %64(ptr noundef %67, i64 noundef %71, ptr noundef %74)
  %75 = getelementptr inbounds nuw %"class.c4::yml::Tree", ptr %7, i32 0, i32 5
  %76 = getelementptr inbounds nuw %"struct.c4::basic_substring", ptr %75, i32 0, i32 0
  store ptr null, ptr %76, align 8, !tbaa !133
  br label %77

77:                                               ; preds = %61
  br label %78

78:                                               ; preds = %77, %40
  call void @_ZN2c43yml4Tree6_clearEv(ptr noundef nonnull align 8 dereferenceable(256) %7)
  ret void
}