; Function Attrs: mustprogress uwtable
define void @_ZN2c43yml4Tree5_freeEv(ptr noundef nonnull align 8 captures(none) dereferenceable(256) initializes((16, 40), (56, 64), (96, 256)) %0) local_unnamed_addr #1 align 2 {
  %2 = alloca [26 x i8], align 16
  %3 = alloca %"struct.c4::yml::Location", align 8
  %4 = alloca [32 x i8], align 16
  %5 = alloca %"struct.c4::yml::Location", align 8
  %6 = load ptr, ptr %0, align 8, !tbaa !116
  %.not = icmp eq ptr %6, null
  br i1 %.not, label %27, label %7

7:                                                ; preds = %1
  %8 = getelementptr inbounds nuw i8, ptr %0, i64 8
  %9 = load i64, ptr %8, align 8, !tbaa !94
  %.not1 = icmp eq i64 %9, 0
  br i1 %.not1, label %10, label %19

10:                                               ; preds = %7
  call void @llvm.lifetime.start.p0(i64 26, ptr nonnull %2) #39
  call void @llvm.memcpy.p0.p0.i64(ptr noundef nonnull align 16 dereferenceable(26) %2, ptr noundef nonnull align 16 dereferenceable(26) @__const._ZN2c43yml4Tree5_freeEv.msg, i64 26, i1 false)
  %11 = getelementptr inbounds nuw i8, ptr %0, i64 64
  %12 = getelementptr inbounds nuw i8, ptr %0, i64 88
  %13 = load ptr, ptr %12, align 8, !tbaa !102
  store i64 0, ptr %3, align 8, !tbaa !103
  %14 = getelementptr inbounds nuw i8, ptr %3, i64 8
  store i64 25280, ptr %14, align 8, !tbaa !104
  %15 = getelementptr inbounds nuw i8, ptr %3, i64 16
  store i64 0, ptr %15, align 8, !tbaa !58
  %16 = getelementptr inbounds nuw i8, ptr %3, i64 24
  store ptr @.str, ptr %16, align 8
  %17 = getelementptr inbounds nuw i8, ptr %3, i64 32
  store i64 127, ptr %17, align 8
  %18 = load ptr, ptr %11, align 8, !tbaa !105
  call void %13(ptr noundef nonnull %2, i64 noundef 26, ptr noundef nonnull byval(%"struct.c4::yml::Location") align 8 %3, ptr noundef %18)
  call void @llvm.lifetime.end.p0(i64 26, ptr nonnull %2) #39
  %.pre = load ptr, ptr %0, align 8, !tbaa !116
  %.pre4 = load i64, ptr %8, align 8, !tbaa !94
  br label %19

19:                                               ; preds = %10, %7
  %20 = phi i64 [ %.pre4, %10 ], [ %9, %7 ]
  %21 = phi ptr [ %.pre, %10 ], [ %6, %7 ]
  %22 = getelementptr inbounds nuw i8, ptr %0, i64 64
  %23 = getelementptr inbounds nuw i8, ptr %0, i64 80
  %24 = load ptr, ptr %23, align 8, !tbaa !127
  %25 = mul i64 %20, 144
  %26 = load ptr, ptr %22, align 8, !tbaa !105
  call void %24(ptr noundef %21, i64 noundef %25, ptr noundef %26)
  store ptr null, ptr %0, align 8, !tbaa !116
  br label %27

27:                                               ; preds = %19, %1
  %28 = getelementptr inbounds nuw i8, ptr %0, i64 40
  %29 = load ptr, ptr %28, align 8, !tbaa !126
  %.not2 = icmp eq ptr %29, null
  br i1 %.not2, label %_ZN2c43yml4Tree6_clearEv.exit, label %30

30:                                               ; preds = %27
  %31 = getelementptr inbounds nuw i8, ptr %0, i64 48
  %32 = load i64, ptr %31, align 8, !tbaa !124
  %.not3 = icmp eq i64 %32, 0
  br i1 %.not3, label %33, label %42

33:                                               ; preds = %30
  call void @llvm.lifetime.start.p0(i64 32, ptr nonnull %4) #39
  call void @llvm.memcpy.p0.p0.i64(ptr noundef nonnull align 16 dereferenceable(32) %4, ptr noundef nonnull align 16 dereferenceable(32) @__const._ZN2c43yml4Tree5_freeEv.msg.95, i64 32, i1 false)
  %34 = getelementptr inbounds nuw i8, ptr %0, i64 64
  %35 = getelementptr inbounds nuw i8, ptr %0, i64 88
  %36 = load ptr, ptr %35, align 8, !tbaa !102
  store i64 0, ptr %5, align 8, !tbaa !103
  %37 = getelementptr inbounds nuw i8, ptr %5, i64 8
  store i64 25285, ptr %37, align 8, !tbaa !104
  %38 = getelementptr inbounds nuw i8, ptr %5, i64 16
  store i64 0, ptr %38, align 8, !tbaa !58
  %39 = getelementptr inbounds nuw i8, ptr %5, i64 24
  store ptr @.str, ptr %39, align 8
  %40 = getelementptr inbounds nuw i8, ptr %5, i64 32
  store i64 127, ptr %40, align 8
  %41 = load ptr, ptr %34, align 8, !tbaa !105
  call void %36(ptr noundef nonnull %4, i64 noundef 32, ptr noundef nonnull byval(%"struct.c4::yml::Location") align 8 %5, ptr noundef %41)
  call void @llvm.lifetime.end.p0(i64 32, ptr nonnull %4) #39
  %.pre5 = load ptr, ptr %28, align 8, !tbaa !126
  %.pre6 = load i64, ptr %31, align 8, !tbaa !124
  br label %42

42:                                               ; preds = %33, %30
  %43 = phi i64 [ %.pre6, %33 ], [ %32, %30 ]
  %44 = phi ptr [ %.pre5, %33 ], [ %29, %30 ]
  %45 = getelementptr inbounds nuw i8, ptr %0, i64 64
  %46 = getelementptr inbounds nuw i8, ptr %0, i64 80
  %47 = load ptr, ptr %46, align 8, !tbaa !127
  %48 = load ptr, ptr %45, align 8, !tbaa !105
  call void %47(ptr noundef %44, i64 noundef %43, ptr noundef %48)
  br label %_ZN2c43yml4Tree6_clearEv.exit

_ZN2c43yml4Tree6_clearEv.exit:                    ; preds = %42, %27
  %49 = getelementptr inbounds nuw i8, ptr %0, i64 96
  call void @llvm.memset.p0.i64(ptr noundef nonnull align 8 dereferenceable(256) %0, i8 0, i64 64, i1 false)
  call void @llvm.memset.p0.i64(ptr noundef nonnull align 8 dereferenceable(160) %49, i8 0, i64 160, i1 false)
  ret void
}